target datalayout = "e-m:e-p270:32:32-p271:32:32-p272:64:64-i64:64-i128:128-f80:128-n8:16:32:64-S128"
target triple = "x86_64-pc-linux-gnu"

; Function Attrs: mustprogress nounwind uwtable
define linkonce_odr noundef i32 @_ZN3gmx13divideRoundUpIiEET_S1_S1_(i32 noundef %0, i32 noundef %1) #3 comdat {
  %3 = alloca i32, align 4
  %4 = alloca i32, align 4
  store i32 %0, ptr %3, align 4
  store i32 %1, ptr %4, align 4
  %5 = load i32, ptr %3, align 4
  %6 = load i32, ptr %4, align 4
  %7 = add nsw i32 %5, %6
  %8 = sub nsw i32 %7, 1
  %9 = load i32, ptr %4, align 4
  %10 = sdiv i32 %8, %9
  ret i32 %10
}

; Function Attrs: mustprogress uwtable
define void @_Z18getThreadAtomRangeiiiPiS_(i32 noundef %0, i32 noundef %1, i32 noundef %2, ptr noundef %3, ptr noundef %4) #0 {
  %6 = alloca i32, align 4
  %7 = alloca i32, align 4
  %8 = alloca i32, align 4
  %9 = alloca ptr, align 8
  %10 = alloca ptr, align 8
  %11 = alloca i32, align 4
  %12 = alloca i32, align 4
  store i32 %0, ptr %6, align 4
  store i32 %1, ptr %7, align 4
  store i32 %2, ptr %8, align 4
  store ptr %3, ptr %9, align 8
  store ptr %4, ptr %10, align 8
  store i32 8, ptr %11, align 4
  %13 = load i32, ptr %8, align 4
  %14 = call noundef i32 @_ZN3gmx13divideRoundUpIiEET_S1_S1_(i32 noundef %13, i32 noundef 8)
  store i32 %14, ptr %12, align 4
  %15 = load i32, ptr %12, align 4
  %16 = load i32, ptr %7, align 4
  %17 = mul nsw i32 %15, %16
  %18 = load i32, ptr %6, align 4
  %19 = sdiv i32 %17, %18
  %20 = mul nsw i32 %19, 8
  %21 = load ptr, ptr %9, align 8
  store i32 %20, ptr %21, align 4
  %22 = load i32, ptr %12, align 4
  %23 = load i32, ptr %7, align 4
  %24 = add nsw i32 %23, 1
  %25 = mul nsw i32 %22, %24
  %26 = load i32, ptr %6, align 4
  %27 = sdiv i32 %25, %26
  %28 = mul nsw i32 %27, 8
  %29 = load ptr, ptr %10, align 8
  store i32 %28, ptr %29, align 4
  %30 = load i32, ptr %7, align 4
  %31 = load i32, ptr %6, align 4
  %32 = sub nsw i32 %31, 1
  %33 = icmp eq i32 %30, %32
  br i1 %33, label %34, label %37

34:                                               ; preds = %5
  %35 = load i32, ptr %8, align 4
  %36 = load ptr, ptr %10, align 8
  store i32 %35, ptr %36, align 4
  br label %37

37:                                               ; preds = %34, %5
  ret void
}