; Function Attrs: mustprogress nofree norecurse nosync nounwind willreturn memory(argmem: write) uwtable
define void @_Z18getThreadAtomRangeiiiPiS_(i32 noundef %0, i32 noundef %1, i32 noundef %2, ptr nocapture noundef writeonly %3, ptr nocapture noundef writeonly %4) local_unnamed_addr #15 {
  %6 = add i32 %2, 7
  %7 = sdiv i32 %6, 8
  %8 = mul nsw i32 %7, %1
  %9 = sdiv i32 %8, %0
  %10 = shl nsw i32 %9, 3
  store i32 %10, ptr %3, align 4
  %11 = add nsw i32 %1, 1
  %12 = mul nsw i32 %7, %11
  %13 = sdiv i32 %12, %0
  %14 = shl nsw i32 %13, 3
  %15 = add nsw i32 %0, -1
  %16 = icmp eq i32 %15, %1
  %spec.select = select i1 %16, i32 %2, i32 %14
  store i32 %spec.select, ptr %4, align 4
  ret void
}